target datalayout = "e-m:e-p270:32:32-p271:32:32-p272:64:64-i64:64-i128:128-f80:128-n8:16:32:64-S128"
target triple = "x86_64-unknown-linux-gnu"

%struct.ecc_set_type = type { i32, i32, ptr, ptr, ptr, ptr, ptr, ptr, ptr, ptr, i32, i32, i32 }
%struct.ecc_key = type { i32, i32, i32, i32, ptr, ptr, %struct.ecc_point, [1 x %struct.sp_int], ptr }
%struct.ecc_point = type { [1 x %struct.sp_int], [1 x %struct.sp_int], [1 x %struct.sp_int] }
%struct.sp_int = type { i32, i32, [129 x i64] }

; Function Attrs: nounwind uwtable
define i32 @wc_ecc_set_curve(ptr noundef %key, i32 noundef %keysize, i32 noundef %curve_id) #0 {
entry:
  %retval = alloca i32, align 4
  %key.addr = alloca ptr, align 8
  %keysize.addr = alloca i32, align 4
  %curve_id.addr = alloca i32, align 4
  %x = alloca i32, align 4
  store ptr %key, ptr %key.addr, align 8
  store i32 %keysize, ptr %keysize.addr, align 4
  store i32 %curve_id, ptr %curve_id.addr, align 4
  %0 = load ptr, ptr %key.addr, align 8
  %cmp = icmp eq ptr %0, null
  br i1 %cmp, label %if.then, label %lor.lhs.false

lor.lhs.false:                                    ; preds = %entry
  %1 = load i32, ptr %keysize.addr, align 4
  %cmp1 = icmp sle i32 %1, 0
  br i1 %cmp1, label %land.lhs.true, label %if.end

land.lhs.true:                                    ; preds = %lor.lhs.false
  %2 = load i32, ptr %curve_id.addr, align 4
  %cmp2 = icmp slt i32 %2, 0
  br i1 %cmp2, label %if.then, label %if.end

if.then:                                          ; preds = %land.lhs.true, %entry
  store i32 -173, ptr %retval, align 4
  br label %return

if.end:                                           ; preds = %land.lhs.true, %lor.lhs.false
  %3 = load i32, ptr %keysize.addr, align 4
  %cmp3 = icmp sgt i32 %3, 66
  br i1 %cmp3, label %if.then4, label %if.end5

if.then4:                                         ; preds = %if.end
  store i32 -170, ptr %retval, align 4
  br label %return

if.end5:                                          ; preds = %if.end
  %4 = load ptr, ptr %key.addr, align 8
  %idx = getelementptr inbounds %struct.ecc_key, ptr %4, i32 0, i32 1
  %5 = load i32, ptr %idx, align 4
  %cmp6 = icmp ne i32 %5, -1
  br i1 %cmp6, label %if.then7, label %if.end34

if.then7:                                         ; preds = %if.end5
  %6 = load ptr, ptr %key.addr, align 8
  %idx8 = getelementptr inbounds %struct.ecc_key, ptr %6, i32 0, i32 1
  store i32 0, ptr %idx8, align 4
  %7 = load ptr, ptr %key.addr, align 8
  %dp = getelementptr inbounds %struct.ecc_key, ptr %7, i32 0, i32 4
  store ptr null, ptr %dp, align 8
  store i32 0, ptr %x, align 4
  br label %for.cond

for.cond:                                         ; preds = %for.inc, %if.then7
  %8 = load i32, ptr %x, align 4
  %idxprom = sext i32 %8 to i64
  %arrayidx = getelementptr inbounds [6 x %struct.ecc_set_type], ptr @ecc_sets, i64 0, i64 %idxprom
  %size = getelementptr inbounds %struct.ecc_set_type, ptr %arrayidx, i32 0, i32 0
  %9 = load i32, ptr %size, align 8
  %cmp9 = icmp ne i32 %9, 0
  br i1 %cmp9, label %for.body, label %for.end

for.body:                                         ; preds = %for.cond
  %10 = load i32, ptr %curve_id.addr, align 4
  %cmp10 = icmp sgt i32 %10, 0
  br i1 %cmp10, label %if.then11, label %if.else

if.then11:                                        ; preds = %for.body
  %11 = load i32, ptr %curve_id.addr, align 4
  %12 = load i32, ptr %x, align 4
  %idxprom12 = sext i32 %12 to i64
  %arrayidx13 = getelementptr inbounds [6 x %struct.ecc_set_type], ptr @ecc_sets, i64 0, i64 %idxprom12
  %id = getelementptr inbounds %struct.ecc_set_type, ptr %arrayidx13, i32 0, i32 1
  %13 = load i32, ptr %id, align 4
  %cmp14 = icmp eq i32 %11, %13
  br i1 %cmp14, label %if.then15, label %if.end16

if.then15:                                        ; preds = %if.then11
  br label %for.end

if.end16:                                         ; preds = %if.then11
  br label %if.end23

if.else:                                          ; preds = %for.body
  %14 = load i32, ptr %keysize.addr, align 4
  %15 = load i32, ptr %x, align 4
  %idxprom17 = sext i32 %15 to i64
  %arrayidx18 = getelementptr inbounds [6 x %struct.ecc_set_type], ptr @ecc_sets, i64 0, i64 %idxprom17
  %size19 = getelementptr inbounds %struct.ecc_set_type, ptr %arrayidx18, i32 0, i32 0
  %16 = load i32, ptr %size19, align 8
  %cmp20 = icmp sle i32 %14, %16
  br i1 %cmp20, label %if.then21, label %if.end22

if.then21:                                        ; preds = %if.else
  br label %for.end

if.end22:                                         ; preds = %if.else
  br label %if.end23

if.end23:                                         ; preds = %if.end22, %if.end16
  br label %for.inc

for.inc:                                          ; preds = %if.end23
  %17 = load i32, ptr %x, align 4
  %inc = add nsw i32 %17, 1
  store i32 %inc, ptr %x, align 4
  br label %for.cond, !llvm.loop !6

for.end:                                          ; preds = %if.then21, %if.then15, %for.cond
  %18 = load i32, ptr %x, align 4
  %idxprom24 = sext i32 %18 to i64
  %arrayidx25 = getelementptr inbounds [6 x %struct.ecc_set_type], ptr @ecc_sets, i64 0, i64 %idxprom24
  %size26 = getelementptr inbounds %struct.ecc_set_type, ptr %arrayidx25, i32 0, i32 0
  %19 = load i32, ptr %size26, align 8
  %cmp27 = icmp eq i32 %19, 0
  br i1 %cmp27, label %if.then28, label %if.end29

if.then28:                                        ; preds = %for.end
  br label %do.body

do.body:                                          ; preds = %if.then28
  br label %do.end

do.end:                                           ; preds = %do.body
  store i32 -172, ptr %retval, align 4
  br label %return

if.end29:                                         ; preds = %for.end
  %20 = load i32, ptr %x, align 4
  %21 = load ptr, ptr %key.addr, align 8
  %idx30 = getelementptr inbounds %struct.ecc_key, ptr %21, i32 0, i32 1
  store i32 %20, ptr %idx30, align 4
  %22 = load i32, ptr %x, align 4
  %idxprom31 = sext i32 %22 to i64
  %arrayidx32 = getelementptr inbounds [6 x %struct.ecc_set_type], ptr @ecc_sets, i64 0, i64 %idxprom31
  %23 = load ptr, ptr %key.addr, align 8
  %dp33 = getelementptr inbounds %struct.ecc_key, ptr %23, i32 0, i32 4
  store ptr %arrayidx32, ptr %dp33, align 8
  br label %if.end34

if.end34:                                         ; preds = %if.end29, %if.end5
  store i32 0, ptr %retval, align 4
  br label %return

return:                                           ; preds = %if.end34, %do.end, %if.then4, %if.then
  %24 = load i32, ptr %retval, align 4
  ret i32 %24
}

; Function Attrs: nounwind uwtable
define internal void @wc_ecc_reset(ptr noundef %key) #0 {
entry:
  %key.addr = alloca ptr, align 8
  store ptr %key, ptr %key.addr, align 8
  %0 = load ptr, ptr %key.addr, align 8
  %state = getelementptr inbounds %struct.ecc_key, ptr %0, i32 0, i32 2
  store i32 0, ptr %state, align 8
  ret void
}

; Function Attrs: nounwind uwtable
define i32 @wc_ecc_import_x963_ex(ptr noundef %in, i32 noundef %inLen, ptr noundef %key, i32 noundef %curve_id) #0 {
entry:
  %retval = alloca i32, align 4
  %in.addr = alloca ptr, align 8
  %inLen.addr = alloca i32, align 4
  %key.addr = alloca ptr, align 8
  %curve_id.addr = alloca i32, align 4
  %err = alloca i32, align 4
  %keysize = alloca i32, align 4
  %pointType = alloca i8, align 1
  store ptr %in, ptr %in.addr, align 8
  store i32 %inLen, ptr %inLen.addr, align 4
  store ptr %key, ptr %key.addr, align 8
  store i32 %curve_id, ptr %curve_id.addr, align 4
  store i32 0, ptr %err, align 4
  store i32 0, ptr %keysize, align 4
  %0 = load ptr, ptr %in.addr, align 8
  %cmp = icmp eq ptr %0, null
  br i1 %cmp, label %if.then, label %lor.lhs.false

lor.lhs.false:                                    ; preds = %entry
  %1 = load ptr, ptr %key.addr, align 8
  %cmp1 = icmp eq ptr %1, null
  br i1 %cmp1, label %if.then, label %if.end

if.then:                                          ; preds = %lor.lhs.false, %entry
  store i32 -173, ptr %retval, align 4
  br label %return

if.end:                                           ; preds = %lor.lhs.false
  %2 = load i32, ptr %inLen.addr, align 4
  %and = and i32 %2, 1
  %cmp2 = icmp eq i32 %and, 0
  br i1 %cmp2, label %if.then3, label %if.end4

if.then3:                                         ; preds = %if.end
  store i32 -170, ptr %retval, align 4
  br label %return

if.end4:                                          ; preds = %if.end
  %3 = load ptr, ptr %key.addr, align 8
  call void @wc_ecc_reset(ptr noundef %3)
  %4 = load ptr, ptr %key.addr, align 8
  %k = getelementptr inbounds %struct.ecc_key, ptr %4, i32 0, i32 7
  %arraydecay = getelementptr inbounds [1 x %struct.sp_int], ptr %k, i64 0, i64 0
  %5 = load ptr, ptr %key.addr, align 8
  %pubkey = getelementptr inbounds %struct.ecc_key, ptr %5, i32 0, i32 6
  %x = getelementptr inbounds %struct.ecc_point, ptr %pubkey, i32 0, i32 0
  %arraydecay5 = getelementptr inbounds [1 x %struct.sp_int], ptr %x, i64 0, i64 0
  %6 = load ptr, ptr %key.addr, align 8
  %pubkey6 = getelementptr inbounds %struct.ecc_key, ptr %6, i32 0, i32 6
  %y = getelementptr inbounds %struct.ecc_point, ptr %pubkey6, i32 0, i32 1
  %arraydecay7 = getelementptr inbounds [1 x %struct.sp_int], ptr %y, i64 0, i64 0
  %7 = load ptr, ptr %key.addr, align 8
  %pubkey8 = getelementptr inbounds %struct.ecc_key, ptr %7, i32 0, i32 6
  %z = getelementptr inbounds %struct.ecc_point, ptr %pubkey8, i32 0, i32 2
  %arraydecay9 = getelementptr inbounds [1 x %struct.sp_int], ptr %z, i64 0, i64 0
  %call = call i32 @sp_init_multi(ptr noundef %arraydecay, ptr noundef %arraydecay5, ptr noundef %arraydecay7, ptr noundef %arraydecay9, ptr noundef null, ptr noundef null)
  store i32 %call, ptr %err, align 4
  %8 = load i32, ptr %err, align 4
  %cmp10 = icmp ne i32 %8, 0
  br i1 %cmp10, label %if.then11, label %if.end12

if.then11:                                        ; preds = %if.end4
  store i32 -125, ptr %retval, align 4
  br label %return

if.end12:                                         ; preds = %if.end4
  br label %do.body

do.body:                                          ; preds = %if.end12
  br label %do.end

do.end:                                           ; preds = %do.body
  %9 = load ptr, ptr %in.addr, align 8
  %arrayidx = getelementptr inbounds i8, ptr %9, i64 0
  %10 = load i8, ptr %arrayidx, align 1
  store i8 %10, ptr %pointType, align 1
  %11 = load i8, ptr %pointType, align 1
  %conv = zext i8 %11 to i32
  %cmp13 = icmp ne i32 %conv, 4
  br i1 %cmp13, label %land.lhs.true, label %if.end23

land.lhs.true:                                    ; preds = %do.end
  %12 = load i8, ptr %pointType, align 1
  %conv15 = zext i8 %12 to i32
  %cmp16 = icmp ne i32 %conv15, 2
  br i1 %cmp16, label %land.lhs.true18, label %if.end23

land.lhs.true18:                                  ; preds = %land.lhs.true
  %13 = load i8, ptr %pointType, align 1
  %conv19 = zext i8 %13 to i32
  %cmp20 = icmp ne i32 %conv19, 3
  br i1 %cmp20, label %if.then22, label %if.end23

if.then22:                                        ; preds = %land.lhs.true18
  store i32 -140, ptr %err, align 4
  br label %if.end23

if.end23:                                         ; preds = %if.then22, %land.lhs.true18, %land.lhs.true, %do.end
  %14 = load i8, ptr %pointType, align 1
  %conv24 = zext i8 %14 to i32
  %cmp25 = icmp eq i32 %conv24, 2
  br i1 %cmp25, label %if.then31, label %lor.lhs.false27

lor.lhs.false27:                                  ; preds = %if.end23
  %15 = load i8, ptr %pointType, align 1
  %conv28 = zext i8 %15 to i32
  %cmp29 = icmp eq i32 %conv28, 3
  br i1 %cmp29, label %if.then31, label %if.end32

if.then31:                                        ; preds = %lor.lhs.false27, %if.end23
  store i32 -174, ptr %err, align 4
  br label %if.end32

if.end32:                                         ; preds = %if.then31, %lor.lhs.false27
  %16 = load i32, ptr %inLen.addr, align 4
  %sub = sub i32 %16, 1
  store i32 %sub, ptr %inLen.addr, align 4
  %17 = load ptr, ptr %in.addr, align 8
  %add.ptr = getelementptr inbounds i8, ptr %17, i64 1
  store ptr %add.ptr, ptr %in.addr, align 8
  %18 = load i32, ptr %err, align 4
  %cmp33 = icmp eq i32 %18, 0
  br i1 %cmp33, label %if.then35, label %if.end37

if.then35:                                        ; preds = %if.end32
  %19 = load i32, ptr %inLen.addr, align 4
  %shr = lshr i32 %19, 1
  store i32 %shr, ptr %keysize, align 4
  %20 = load ptr, ptr %key.addr, align 8
  %21 = load i32, ptr %keysize, align 4
  %22 = load i32, ptr %curve_id.addr, align 4
  %call36 = call i32 @wc_ecc_set_curve(ptr noundef %20, i32 noundef %21, i32 noundef %22)
  store i32 %call36, ptr %err, align 4
  %23 = load ptr, ptr %key.addr, align 8
  %type = getelementptr inbounds %struct.ecc_key, ptr %23, i32 0, i32 0
  store i32 1, ptr %type, align 8
  br label %if.end37

if.end37:                                         ; preds = %if.then35, %if.end32
  %24 = load i32, ptr %err, align 4
  %cmp38 = icmp eq i32 %24, 0
  br i1 %cmp38, label %if.then40, label %if.end45

if.then40:                                        ; preds = %if.end37
  %25 = load ptr, ptr %key.addr, align 8
  %pubkey41 = getelementptr inbounds %struct.ecc_key, ptr %25, i32 0, i32 6
  %x42 = getelementptr inbounds %struct.ecc_point, ptr %pubkey41, i32 0, i32 0
  %arraydecay43 = getelementptr inbounds [1 x %struct.sp_int], ptr %x42, i64 0, i64 0
  %26 = load ptr, ptr %in.addr, align 8
  %27 = load i32, ptr %keysize, align 4
  %call44 = call i32 @sp_read_unsigned_bin(ptr noundef %arraydecay43, ptr noundef %26, i32 noundef %27)
  store i32 %call44, ptr %err, align 4
  br label %if.end45

if.end45:                                         ; preds = %if.then40, %if.end37
  %28 = load i32, ptr %err, align 4
  %cmp46 = icmp eq i32 %28, 0
  br i1 %cmp46, label %if.then48, label %if.end54

if.then48:                                        ; preds = %if.end45
  %29 = load ptr, ptr %key.addr, align 8
  %pubkey49 = getelementptr inbounds %struct.ecc_key, ptr %29, i32 0, i32 6
  %y50 = getelementptr inbounds %struct.ecc_point, ptr %pubkey49, i32 0, i32 1
  %arraydecay51 = getelementptr inbounds [1 x %struct.sp_int], ptr %y50, i64 0, i64 0
  %30 = load ptr, ptr %in.addr, align 8
  %31 = load i32, ptr %keysize, align 4
  %idx.ext = sext i32 %31 to i64
  %add.ptr52 = getelementptr inbounds i8, ptr %30, i64 %idx.ext
  %32 = load i32, ptr %keysize, align 4
  %call53 = call i32 @sp_read_unsigned_bin(ptr noundef %arraydecay51, ptr noundef %add.ptr52, i32 noundef %32)
  store i32 %call53, ptr %err, align 4
  br label %if.end54

if.end54:                                         ; preds = %if.then48, %if.end45
  %33 = load i32, ptr %err, align 4
  %cmp55 = icmp eq i32 %33, 0
  br i1 %cmp55, label %if.then57, label %if.end62

if.then57:                                        ; preds = %if.end54
  %34 = load ptr, ptr %key.addr, align 8
  %pubkey58 = getelementptr inbounds %struct.ecc_key, ptr %34, i32 0, i32 6
  %z59 = getelementptr inbounds %struct.ecc_point, ptr %pubkey58, i32 0, i32 2
  %arraydecay60 = getelementptr inbounds [1 x %struct.sp_int], ptr %z59, i64 0, i64 0
  %call61 = call i32 @sp_set(ptr noundef %arraydecay60, i64 noundef 1)
  store i32 %call61, ptr %err, align 4
  br label %if.end62

if.end62:                                         ; preds = %if.then57, %if.end54
  %35 = load i32, ptr %err, align 4
  %cmp63 = icmp ne i32 %35, 0
  br i1 %cmp63, label %if.then65, label %if.end77

if.then65:                                        ; preds = %if.end62
  %36 = load ptr, ptr %key.addr, align 8
  %pubkey66 = getelementptr inbounds %struct.ecc_key, ptr %36, i32 0, i32 6
  %x67 = getelementptr inbounds %struct.ecc_point, ptr %pubkey66, i32 0, i32 0
  %arraydecay68 = getelementptr inbounds [1 x %struct.sp_int], ptr %x67, i64 0, i64 0
  call void @sp_clear(ptr noundef %arraydecay68)
  %37 = load ptr, ptr %key.addr, align 8
  %pubkey69 = getelementptr inbounds %struct.ecc_key, ptr %37, i32 0, i32 6
  %y70 = getelementptr inbounds %struct.ecc_point, ptr %pubkey69, i32 0, i32 1
  %arraydecay71 = getelementptr inbounds [1 x %struct.sp_int], ptr %y70, i64 0, i64 0
  call void @sp_clear(ptr noundef %arraydecay71)
  %38 = load ptr, ptr %key.addr, align 8
  %pubkey72 = getelementptr inbounds %struct.ecc_key, ptr %38, i32 0, i32 6
  %z73 = getelementptr inbounds %struct.ecc_point, ptr %pubkey72, i32 0, i32 2
  %arraydecay74 = getelementptr inbounds [1 x %struct.sp_int], ptr %z73, i64 0, i64 0
  call void @sp_clear(ptr noundef %arraydecay74)
  %39 = load ptr, ptr %key.addr, align 8
  %k75 = getelementptr inbounds %struct.ecc_key, ptr %39, i32 0, i32 7
  %arraydecay76 = getelementptr inbounds [1 x %struct.sp_int], ptr %k75, i64 0, i64 0
  call void @sp_clear(ptr noundef %arraydecay76)
  br label %if.end77

if.end77:                                         ; preds = %if.then65, %if.end62
  br label %do.body78

do.body78:                                        ; preds = %if.end77
  br label %do.end79

do.end79:                                         ; preds = %do.body78
  %40 = load i32, ptr %err, align 4
  store i32 %40, ptr %retval, align 4
  br label %return

return:                                           ; preds = %do.end79, %if.then11, %if.then3, %if.then
  %41 = load i32, ptr %retval, align 4
  ret i32 %41
}