; Function Attrs: nounwind uwtable
define i32 @wc_ecc_import_x963_ex(ptr noundef %in, i32 noundef %inLen, ptr noundef %key, i32 noundef %curve_id) local_unnamed_addr #2 {
entry:
  %cmp = icmp eq ptr %in, null
  %cmp1 = icmp eq ptr %key, null
  %or.cond = or i1 %cmp, %cmp1
  br i1 %or.cond, label %return, label %if.end

if.end:                                           ; preds = %entry
  %and = and i32 %inLen, 1
  %cmp2 = icmp eq i32 %and, 0
  br i1 %cmp2, label %return, label %if.end4

if.end4:                                          ; preds = %if.end
  %state.i = getelementptr inbounds nuw i8, ptr %key, i64 8
  store i32 0, ptr %state.i, align 8
  %k = getelementptr inbounds nuw i8, ptr %key, i64 3152
  %pubkey = getelementptr inbounds nuw i8, ptr %key, i64 32
  %y = getelementptr inbounds nuw i8, ptr %key, i64 1072
  %z = getelementptr inbounds nuw i8, ptr %key, i64 2112
  %call = tail call i32 @sp_init_multi(ptr noundef nonnull %k, ptr noundef nonnull %pubkey, ptr noundef nonnull %y, ptr noundef nonnull %z, ptr noundef null, ptr noundef null) #19
  %cmp10.not = icmp eq i32 %call, 0
  br i1 %cmp10.not, label %do.end, label %return

do.end:                                           ; preds = %if.end4
  %0 = load i8, ptr %in, align 1
  %1 = add i8 %0, -5
  %or.cond2 = icmp ult i8 %1, -3
  %spec.select = select i1 %or.cond2, i32 -140, i32 0
  %2 = and i8 %0, -2
  %or.cond3 = icmp eq i8 %2, 2
  %err.1 = select i1 %or.cond3, i32 -174, i32 %spec.select
  %add.ptr = getelementptr inbounds nuw i8, ptr %in, i64 1
  %cmp33 = icmp eq i32 %err.1, 0
  br i1 %cmp33, label %lor.lhs.false.i, label %if.then65

lor.lhs.false.i:                                  ; preds = %do.end
  %sub = add nsw i32 %inLen, -1
  %shr = lshr exact i32 %sub, 1
  %cmp1.i = icmp eq i32 %sub, 0
  %cmp2.i = icmp slt i32 %curve_id, 0
  %or.cond.i = and i1 %cmp1.i, %cmp2.i
  br i1 %or.cond.i, label %if.end37.thread41, label %if.end.i

if.end.i:                                         ; preds = %lor.lhs.false.i
  %cmp3.i = icmp ugt i32 %sub, 132
  br i1 %cmp3.i, label %if.end37.thread41, label %if.end5.i

if.end5.i:                                        ; preds = %if.end.i
  %idx.i = getelementptr inbounds nuw i8, ptr %key, i64 4
  %3 = load i32, ptr %idx.i, align 4
  %cmp6.not.i = icmp eq i32 %3, -1
  br i1 %cmp6.not.i, label %if.end45, label %if.then7.i

if.then7.i:                                       ; preds = %if.end5.i
  store i32 0, ptr %idx.i, align 4
  %dp.i = getelementptr inbounds nuw i8, ptr %key, i64 16
  store ptr null, ptr %dp.i, align 8
  %cmp10.i = icmp sgt i32 %curve_id, 0
  br i1 %cmp10.i, label %for.body.us.i, label %if.then7.split.i

for.body.us.i:                                    ; preds = %if.then7.i, %for.inc.us.i
  %indvars.iv33.i = phi i64 [ %indvars.iv.next34.i, %for.inc.us.i ], [ 0, %if.then7.i ]
  %arrayidx19.us.i = phi ptr [ %arrayidx.us.i, %for.inc.us.i ], [ @ecc_sets, %if.then7.i ]
  %id.us.i = getelementptr inbounds nuw i8, ptr %arrayidx19.us.i, i64 4
  %4 = load i32, ptr %id.us.i, align 4
  %cmp14.us.i = icmp eq i32 %curve_id, %4
  br i1 %cmp14.us.i, label %if.end29.loopexit.i, label %for.inc.us.i

for.inc.us.i:                                     ; preds = %for.body.us.i
  %indvars.iv.next34.i = add nuw nsw i64 %indvars.iv33.i, 1
  %arrayidx.us.i = getelementptr inbounds nuw [6 x %struct.ecc_set_type], ptr @ecc_sets, i64 0, i64 %indvars.iv.next34.i
  %exitcond36.i = icmp eq i64 %indvars.iv.next34.i, 5
  br i1 %exitcond36.i, label %if.end37.thread41, label %for.body.us.i, !llvm.loop !6

if.then7.split.i:                                 ; preds = %if.then7.i
  %cmp20.not23.i = icmp samesign ugt i32 %sub, 56
  br i1 %cmp20.not23.i, label %for.inc.i, label %if.end29.i

for.body.i:                                       ; preds = %for.inc.i
  %indvars.iv.next.i = add nuw nsw i64 %indvars.iv.i, 1
  %arrayidx.i = getelementptr inbounds nuw [6 x %struct.ecc_set_type], ptr @ecc_sets, i64 0, i64 %indvars.iv.next.i
  %5 = load i32, ptr %arrayidx.i, align 8
  %cmp20.not.i = icmp sgt i32 %shr, %5
  br i1 %cmp20.not.i, label %for.inc.i, label %if.end29.loopexit27.i, !llvm.loop !6

for.inc.i:                                        ; preds = %if.then7.split.i, %for.body.i
  %indvars.iv.i = phi i64 [ %indvars.iv.next.i, %for.body.i ], [ 0, %if.then7.split.i ]
  %exitcond.i = icmp eq i64 %indvars.iv.i, 4
  br i1 %exitcond.i, label %if.end37.thread41, label %for.body.i, !llvm.loop !6

if.end29.loopexit.i:                              ; preds = %for.body.us.i
  %6 = trunc nuw nsw i64 %indvars.iv33.i to i32
  br label %if.end29.i

if.end29.loopexit27.i:                            ; preds = %for.body.i
  %7 = trunc nuw nsw i64 %indvars.iv.next.i to i32
  br label %if.end29.i

if.end29.i:                                       ; preds = %if.end29.loopexit27.i, %if.end29.loopexit.i, %if.then7.split.i
  %.us-phi.i = phi i32 [ 0, %if.then7.split.i ], [ %6, %if.end29.loopexit.i ], [ %7, %if.end29.loopexit27.i ]
  %.us-phi20.i = phi ptr [ @ecc_sets, %if.then7.split.i ], [ %arrayidx19.us.i, %if.end29.loopexit.i ], [ %arrayidx.i, %if.end29.loopexit27.i ]
  store i32 %.us-phi.i, ptr %idx.i, align 4
  store ptr %.us-phi20.i, ptr %dp.i, align 8
  br label %if.end45

if.end37.thread41:                                ; preds = %for.inc.i, %for.inc.us.i, %lor.lhs.false.i, %if.end.i
  %retval.0.i.ph = phi i32 [ -170, %if.end.i ], [ -173, %lor.lhs.false.i ], [ -172, %for.inc.us.i ], [ -172, %for.inc.i ]
  store i32 1, ptr %key, align 8
  br label %if.then65

if.end45:                                         ; preds = %if.end29.i, %if.end5.i
  store i32 1, ptr %key, align 8
  %call44 = tail call i32 @sp_read_unsigned_bin(ptr noundef nonnull %pubkey, ptr noundef nonnull %add.ptr, i32 noundef %shr) #19
  %cmp46 = icmp eq i32 %call44, 0
  br i1 %cmp46, label %if.end54, label %if.then65

if.end54:                                         ; preds = %if.end45
  %idx.ext = zext nneg i32 %shr to i64
  %add.ptr52 = getelementptr inbounds nuw i8, ptr %add.ptr, i64 %idx.ext
  %call53 = tail call i32 @sp_read_unsigned_bin(ptr noundef nonnull %y, ptr noundef nonnull %add.ptr52, i32 noundef %shr) #19
  %cmp55 = icmp eq i32 %call53, 0
  br i1 %cmp55, label %if.end62, label %if.then65

if.end62:                                         ; preds = %if.end54
  %call61 = tail call i32 @sp_set(ptr noundef nonnull %z, i64 noundef 1) #19
  %cmp63.not = icmp eq i32 %call61, 0
  br i1 %cmp63.not, label %return, label %if.then65

if.then65:                                        ; preds = %do.end, %if.end37.thread41, %if.end45, %if.end54, %if.end62
  %err.551 = phi i32 [ %call61, %if.end62 ], [ %call53, %if.end54 ], [ %call44, %if.end45 ], [ %retval.0.i.ph, %if.end37.thread41 ], [ %err.1, %do.end ]
  tail call void @sp_clear(ptr noundef nonnull %pubkey) #19
  tail call void @sp_clear(ptr noundef nonnull %y) #19
  tail call void @sp_clear(ptr noundef nonnull %z) #19
  tail call void @sp_clear(ptr noundef nonnull %k) #19
  br label %return

return:                                           ; preds = %if.end62, %if.then65, %if.end4, %if.end, %entry
  %retval.0 = phi i32 [ -173, %entry ], [ -170, %if.end ], [ -125, %if.end4 ], [ %err.551, %if.then65 ], [ 0, %if.end62 ]
  ret i32 %retval.0
}